target datalayout = "e-m:e-p270:32:32-p271:32:32-p272:64:64-i64:64-i128:128-f80:128-n8:16:32:64-S128"
target triple = "x86_64-pc-linux-gnu"

@iuup_handle = internal global ptr null, align 8
@__const.proto_register_iuup.ett = private unnamed_addr constant [8 x ptr] [ptr @ett_iuup, ptr @ett_rfci, ptr @ett_ipti, ptr @ett_support, ptr @ett_time, ptr @ett_rfciinds, ptr @ett_payload, ptr @ett_payload_subflows], align 16
@.str.2672 = private unnamed_addr constant [5 x i8] c"IuUP\00", align 1
@.str.2673 = private unnamed_addr constant [5 x i8] c"iuup\00", align 1
@proto_iuup = internal global i32 0, align 4
@.str.2674 = private unnamed_addr constant [10 x i8] c"find_iuup\00", align 1
@circuits = internal global ptr null, align 8
@.str.2675 = private unnamed_addr constant [16 x i8] c"dissect_payload\00", align 1
@.str.2676 = private unnamed_addr constant [26 x i8] c"Dissect IuUP Payload bits\00", align 1
@.str.2677 = private unnamed_addr constant [46 x i8] c"Whether IuUP Payload bits should be dissected\00", align 1
@dissect_fields = internal global i8 0, align 1
@.str.2678 = private unnamed_addr constant [22 x i8] c"two_byte_pseudoheader\00", align 1
@.str.2679 = private unnamed_addr constant [22 x i8] c"Two byte pseudoheader\00", align 1
@.str.2680 = private unnamed_addr constant [81 x i8] c"The payload contains a two byte pseudoheader indicating direction and circuit_id\00", align 1
@two_byte_pseudoheader = internal global i8 0, align 1
@.str.2681 = private unnamed_addr constant [21 x i8] c"dynamic.payload.type\00", align 1

; Function Attrs: null_pointer_is_valid sspstrong uwtable
define hidden void @proto_register_iuup() #0 {
  %1 = alloca [8 x ptr], align 16
  %2 = alloca ptr, align 8
  %3 = alloca ptr, align 8
  call void @llvm.lifetime.start.p0(i64 64, ptr %1) #8
  call void @llvm.memcpy.p0.p0.i64(ptr align 16 %1, ptr align 16 @__const.proto_register_iuup.ett, i64 64, i1 false)
  call void @llvm.lifetime.start.p0(i64 8, ptr %2) #8
  call void @llvm.lifetime.start.p0(i64 8, ptr %3) #8
  %4 = call i32 @proto_register_protocol(ptr noundef @.str.2672, ptr noundef @.str.2672, ptr noundef @.str.2673)
  store i32 %4, ptr @proto_iuup, align 4
  %5 = load i32, ptr @proto_iuup, align 4
  call void @proto_register_field_array(i32 noundef %5, ptr noundef @proto_register_iuup.hf, i32 noundef 1391)
  %6 = getelementptr inbounds [8 x ptr], ptr %1, i64 0, i64 0
  call void @proto_register_subtree_array(ptr noundef %6, i32 noundef 8)
  %7 = load i32, ptr @proto_iuup, align 4
  %8 = call ptr @expert_register_protocol(i32 noundef %7)
  store ptr %8, ptr %3, align 8
  %9 = load ptr, ptr %3, align 8
  call void @expert_register_field_array(ptr noundef %9, ptr noundef @proto_register_iuup.ei, i32 noundef 8)
  %10 = load i32, ptr @proto_iuup, align 4
  %11 = call ptr @register_dissector(ptr noundef @.str.2673, ptr noundef @dissect_iuup, i32 noundef %10)
  store ptr %11, ptr @iuup_handle, align 8
  %12 = load i32, ptr @proto_iuup, align 4
  %13 = call ptr @register_dissector(ptr noundef @.str.2674, ptr noundef @find_iuup, i32 noundef %12)
  %14 = call ptr @wmem_epan_scope()
  %15 = call ptr @wmem_file_scope()
  %16 = call noalias ptr @wmem_map_new_autoreset(ptr noundef %14, ptr noundef %15, ptr noundef @g_direct_hash, ptr noundef @g_direct_equal)
  store ptr %16, ptr @circuits, align 8
  %17 = load i32, ptr @proto_iuup, align 4
  %18 = call ptr @prefs_register_protocol(i32 noundef %17, ptr noundef null)
  store ptr %18, ptr %2, align 8
  %19 = load ptr, ptr %2, align 8
  call void @prefs_register_bool_preference(ptr noundef %19, ptr noundef @.str.2675, ptr noundef @.str.2676, ptr noundef @.str.2677, ptr noundef @dissect_fields)
  %20 = load ptr, ptr %2, align 8
  call void @prefs_register_bool_preference(ptr noundef %20, ptr noundef @.str.2678, ptr noundef @.str.2679, ptr noundef @.str.2680, ptr noundef @two_byte_pseudoheader)
  %21 = load ptr, ptr %2, align 8
  call void @prefs_register_obsolete_preference(ptr noundef %21, ptr noundef @.str.2681)
  call void @llvm.lifetime.end.p0(i64 8, ptr %3) #8
  call void @llvm.lifetime.end.p0(i64 8, ptr %2) #8
  call void @llvm.lifetime.end.p0(i64 64, ptr %1) #8
  ret void
}