; Function Attrs: null_pointer_is_valid sspstrong uwtable
define hidden void @proto_register_iuup() local_unnamed_addr #0 {
  %1 = alloca [8 x ptr], align 16
  call void @llvm.lifetime.start.p0(i64 64, ptr nonnull %1) #9
  call void @llvm.memcpy.p0.p0.i64(ptr noundef nonnull align 16 dereferenceable(64) %1, ptr noundef nonnull align 16 dereferenceable(64) @__const.proto_register_iuup.ett, i64 64, i1 false)
  %2 = tail call i32 @proto_register_protocol(ptr noundef nonnull @.str.2672, ptr noundef nonnull @.str.2672, ptr noundef nonnull @.str.2673)
  store i32 %2, ptr @proto_iuup, align 4
  tail call void @proto_register_field_array(i32 noundef %2, ptr noundef nonnull @proto_register_iuup.hf, i32 noundef 1391)
  call void @proto_register_subtree_array(ptr noundef nonnull %1, i32 noundef 8)
  %3 = load i32, ptr @proto_iuup, align 4
  %4 = call ptr @expert_register_protocol(i32 noundef %3)
  call void @expert_register_field_array(ptr noundef %4, ptr noundef nonnull @proto_register_iuup.ei, i32 noundef 8)
  %5 = load i32, ptr @proto_iuup, align 4
  %6 = call ptr @register_dissector(ptr noundef nonnull @.str.2673, ptr noundef nonnull @dissect_iuup, i32 noundef %5)
  store ptr %6, ptr @iuup_handle, align 8
  %7 = load i32, ptr @proto_iuup, align 4
  %8 = call ptr @register_dissector(ptr noundef nonnull @.str.2674, ptr noundef nonnull @find_iuup, i32 noundef %7)
  %9 = call ptr @wmem_epan_scope()
  %10 = call ptr @wmem_file_scope()
  %11 = call noalias ptr @wmem_map_new_autoreset(ptr noundef %9, ptr noundef %10, ptr noundef nonnull @g_direct_hash, ptr noundef nonnull @g_direct_equal)
  store ptr %11, ptr @circuits, align 8
  %12 = load i32, ptr @proto_iuup, align 4
  %13 = call ptr @prefs_register_protocol(i32 noundef %12, ptr noundef null)
  call void @prefs_register_bool_preference(ptr noundef %13, ptr noundef nonnull @.str.2675, ptr noundef nonnull @.str.2676, ptr noundef nonnull @.str.2677, ptr noundef nonnull @dissect_fields)
  call void @prefs_register_bool_preference(ptr noundef %13, ptr noundef nonnull @.str.2678, ptr noundef nonnull @.str.2679, ptr noundef nonnull @.str.2680, ptr noundef nonnull @two_byte_pseudoheader)
  call void @prefs_register_obsolete_preference(ptr noundef %13, ptr noundef nonnull @.str.2681)
  call void @llvm.lifetime.end.p0(i64 64, ptr nonnull %1) #9
  ret void
}